; Function Attrs: mustprogress uwtable
define noundef i32 @_ZN3zmq8router_t8rollbackEv(ptr nocapture noundef nonnull align 8 dereferenceable(2180) %this) local_unnamed_addr #0 align 2 {
entry:
  %_current_out = getelementptr inbounds i8, ptr %this, i64 2160
  %0 = load ptr, ptr %_current_out, align 8
  %tobool.not = icmp eq ptr %0, null
  br i1 %tobool.not, label %if.end, label %if.then

if.then:                                          ; preds = %entry
  tail call void @_ZNK3zmq6pipe_t8rollbackEv(ptr noundef nonnull align 8 dereferenceable(328) %0)
  store ptr null, ptr %_current_out, align 8
  %_more_out = getelementptr inbounds i8, ptr %this, i64 2168
  store i8 0, ptr %_more_out, align 8
  br label %if.end

if.end:                                           ; preds = %if.then, %entry
  ret i32 0
}